target datalayout = "e-m:e-p270:32:32-p271:32:32-p272:64:64-i64:64-i128:128-f80:128-n8:16:32:64-S128"
target triple = "x86_64-pc-linux-gnu"

%struct.DdNode = type { i32, i32, ptr, %union.anon, i64 }
%union.anon = type { %struct.DdChildren }
%struct.DdChildren = type { ptr, ptr }

; Function Attrs: nounwind uwtable
define i32 @Cudd_IsNonConstant(ptr noundef %0) #0 {
  %2 = alloca ptr, align 8
  store ptr %0, ptr %2, align 8
  %3 = load ptr, ptr %2, align 8
  %4 = inttoptr i64 1 to ptr
  %5 = icmp eq ptr %3, %4
  br i1 %5, label %15, label %6

6:                                                ; preds = %1
  %7 = load ptr, ptr %2, align 8
  %8 = ptrtoint ptr %7 to i64
  %9 = and i64 %8, -2
  %10 = inttoptr i64 %9 to ptr
  %11 = getelementptr inbounds %struct.DdNode, ptr %10, i32 0, i32 0
  %12 = load i32, ptr %11, align 8
  %13 = icmp eq i32 %12, 2147483647
  %14 = xor i1 %13, true
  br label %15

15:                                               ; preds = %6, %1
  %16 = phi i1 [ true, %1 ], [ %14, %6 ]
  %17 = zext i1 %16 to i32
  ret i32 %17
}