; Function Attrs: mustprogress nofree norecurse nosync nounwind willreturn memory(read, inaccessiblemem: none) uwtable
define range(i32 0, 2) i32 @Cudd_IsNonConstant(ptr noundef %0) local_unnamed_addr #4 {
  %2 = icmp eq ptr %0, inttoptr (i64 1 to ptr)
  br i1 %2, label %10, label %3

3:                                                ; preds = %1
  %4 = ptrtoint ptr %0 to i64
  %5 = and i64 %4, -2
  %6 = inttoptr i64 %5 to ptr
  %7 = load i32, ptr %6, align 8
  %8 = icmp ne i32 %7, 2147483647
  %9 = zext i1 %8 to i32
  br label %10

10:                                               ; preds = %3, %1
  %11 = phi i32 [ 1, %1 ], [ %9, %3 ]
  ret i32 %11
}